target datalayout = "e-m:e-p270:32:32-p271:32:32-p272:64:64-i64:64-i128:128-f80:128-n8:16:32:64-S128"
target triple = "x86_64-pc-linux-gnu"

%struct.namelist_t = type { ptr, i32, i32 }
%struct.namelist_entry_t = type { ptr, ptr, i32 }
%struct.JSValue = type { %union.JSValueUnion, i64 }
%union.JSValueUnion = type { double }

@cname_list = internal global %struct.namelist_t zeroinitializer, align 8
@byte_swap = internal global i32 0, align 4
@.str.31 = private unnamed_addr constant [31 x i8] c"const uint32_t %s_size = %u;\0A\0A\00", align 1
@.str.32 = private unnamed_addr constant [26 x i8] c"const uint8_t %s[%u] = {\0A\00", align 1
@.str.33 = private unnamed_addr constant [5 x i8] c"};\0A\0A\00", align 1
@.str.34 = private unnamed_addr constant [9 x i8] c" 0x%02x,\00", align 1
@.str.35 = private unnamed_addr constant [2 x i8] c"\0A\00", align 1

; Function Attrs: nounwind uwtable
define internal void @dump_hex(ptr noundef %0, ptr noundef %1, i64 noundef %2) #0 {
  %4 = alloca ptr, align 8
  %5 = alloca ptr, align 8
  %6 = alloca i64, align 8
  %7 = alloca i64, align 8
  %8 = alloca i64, align 8
  store ptr %0, ptr %4, align 8
  store ptr %1, ptr %5, align 8
  store i64 %2, ptr %6, align 8
  store i64 0, ptr %8, align 8
  store i64 0, ptr %7, align 8
  br label %9

9:                                                ; preds = %28, %3
  %10 = load i64, ptr %7, align 8
  %11 = load i64, ptr %6, align 8
  %12 = icmp ult i64 %10, %11
  br i1 %12, label %13, label %31

13:                                               ; preds = %9
  %14 = load ptr, ptr %4, align 8
  %15 = load ptr, ptr %5, align 8
  %16 = load i64, ptr %7, align 8
  %17 = getelementptr i8, ptr %15, i64 %16
  %18 = load i8, ptr %17, align 1
  %19 = zext i8 %18 to i32
  %20 = call i32 (ptr, ptr, ...) @fprintf(ptr noundef %14, ptr noundef @.str.34, i32 noundef %19) #9
  %21 = load i64, ptr %8, align 8
  %22 = add i64 %21, 1
  store i64 %22, ptr %8, align 8
  %23 = icmp eq i64 %22, 8
  br i1 %23, label %24, label %27

24:                                               ; preds = %13
  %25 = load ptr, ptr %4, align 8
  %26 = call i32 (ptr, ptr, ...) @fprintf(ptr noundef %25, ptr noundef @.str.35) #9
  store i64 0, ptr %8, align 8
  br label %27

27:                                               ; preds = %24, %13
  br label %28

28:                                               ; preds = %27
  %29 = load i64, ptr %7, align 8
  %30 = add i64 %29, 1
  store i64 %30, ptr %7, align 8
  br label %9, !llvm.loop !19

31:                                               ; preds = %9
  %32 = load i64, ptr %8, align 8
  %33 = icmp ne i64 %32, 0
  br i1 %33, label %34, label %37

34:                                               ; preds = %31
  %35 = load ptr, ptr %4, align 8
  %36 = call i32 (ptr, ptr, ...) @fprintf(ptr noundef %35, ptr noundef @.str.35) #9
  br label %37

37:                                               ; preds = %34, %31
  ret void
}

; Function Attrs: nounwind uwtable
define dso_local void @namelist_add(ptr noundef %0, ptr noundef %1, ptr noundef %2, i32 noundef %3) #0 {
  %5 = alloca ptr, align 8
  %6 = alloca ptr, align 8
  %7 = alloca ptr, align 8
  %8 = alloca i32, align 4
  %9 = alloca ptr, align 8
  %10 = alloca i64, align 8
  %11 = alloca ptr, align 8
  store ptr %0, ptr %5, align 8
  store ptr %1, ptr %6, align 8
  store ptr %2, ptr %7, align 8
  store i32 %3, ptr %8, align 4
  %12 = load ptr, ptr %5, align 8
  %13 = getelementptr inbounds %struct.namelist_t, ptr %12, i32 0, i32 1
  %14 = load i32, ptr %13, align 8
  %15 = load ptr, ptr %5, align 8
  %16 = getelementptr inbounds %struct.namelist_t, ptr %15, i32 0, i32 2
  %17 = load i32, ptr %16, align 4
  %18 = icmp eq i32 %14, %17
  br i1 %18, label %19, label %43

19:                                               ; preds = %4
  %20 = load ptr, ptr %5, align 8
  %21 = getelementptr inbounds %struct.namelist_t, ptr %20, i32 0, i32 2
  %22 = load i32, ptr %21, align 4
  %23 = load ptr, ptr %5, align 8
  %24 = getelementptr inbounds %struct.namelist_t, ptr %23, i32 0, i32 2
  %25 = load i32, ptr %24, align 4
  %26 = ashr i32 %25, 1
  %27 = add i32 %22, %26
  %28 = add i32 %27, 4
  %29 = sext i32 %28 to i64
  store i64 %29, ptr %10, align 8
  %30 = load ptr, ptr %5, align 8
  %31 = getelementptr inbounds %struct.namelist_t, ptr %30, i32 0, i32 0
  %32 = load ptr, ptr %31, align 8
  %33 = load i64, ptr %10, align 8
  %34 = mul i64 24, %33
  %35 = call ptr @realloc(ptr noundef %32, i64 noundef %34) #8
  store ptr %35, ptr %11, align 8
  %36 = load ptr, ptr %11, align 8
  %37 = load ptr, ptr %5, align 8
  %38 = getelementptr inbounds %struct.namelist_t, ptr %37, i32 0, i32 0
  store ptr %36, ptr %38, align 8
  %39 = load i64, ptr %10, align 8
  %40 = trunc i64 %39 to i32
  %41 = load ptr, ptr %5, align 8
  %42 = getelementptr inbounds %struct.namelist_t, ptr %41, i32 0, i32 2
  store i32 %40, ptr %42, align 4
  br label %43

43:                                               ; preds = %19, %4
  %44 = load ptr, ptr %5, align 8
  %45 = getelementptr inbounds %struct.namelist_t, ptr %44, i32 0, i32 0
  %46 = load ptr, ptr %45, align 8
  %47 = load ptr, ptr %5, align 8
  %48 = getelementptr inbounds %struct.namelist_t, ptr %47, i32 0, i32 1
  %49 = load i32, ptr %48, align 8
  %50 = add i32 %49, 1
  store i32 %50, ptr %48, align 8
  %51 = sext i32 %49 to i64
  %52 = getelementptr %struct.namelist_entry_t, ptr %46, i64 %51
  store ptr %52, ptr %9, align 8
  %53 = load ptr, ptr %6, align 8
  %54 = call noalias ptr @strdup(ptr noundef %53) #9
  %55 = load ptr, ptr %9, align 8
  %56 = getelementptr inbounds %struct.namelist_entry_t, ptr %55, i32 0, i32 0
  store ptr %54, ptr %56, align 8
  %57 = load ptr, ptr %7, align 8
  %58 = icmp ne ptr %57, null
  br i1 %58, label %59, label %64

59:                                               ; preds = %43
  %60 = load ptr, ptr %7, align 8
  %61 = call noalias ptr @strdup(ptr noundef %60) #9
  %62 = load ptr, ptr %9, align 8
  %63 = getelementptr inbounds %struct.namelist_entry_t, ptr %62, i32 0, i32 1
  store ptr %61, ptr %63, align 8
  br label %67

64:                                               ; preds = %43
  %65 = load ptr, ptr %9, align 8
  %66 = getelementptr inbounds %struct.namelist_entry_t, ptr %65, i32 0, i32 1
  store ptr null, ptr %66, align 8
  br label %67

67:                                               ; preds = %64, %59
  %68 = load i32, ptr %8, align 4
  %69 = load ptr, ptr %9, align 8
  %70 = getelementptr inbounds %struct.namelist_entry_t, ptr %69, i32 0, i32 2
  store i32 %68, ptr %70, align 8
  ret void
}

; Function Attrs: nounwind uwtable
define internal void @output_object_code(ptr noundef %0, ptr noundef %1, i64 %2, i64 %3, ptr noundef %4, i32 noundef %5) #0 {
  %7 = alloca %struct.JSValue, align 8
  %8 = alloca ptr, align 8
  %9 = alloca ptr, align 8
  %10 = alloca ptr, align 8
  %11 = alloca i32, align 4
  %12 = alloca ptr, align 8
  %13 = alloca i64, align 8
  %14 = alloca i32, align 4
  %15 = getelementptr inbounds { i64, i64 }, ptr %7, i32 0, i32 0
  store i64 %2, ptr %15, align 8
  %16 = getelementptr inbounds { i64, i64 }, ptr %7, i32 0, i32 1
  store i64 %3, ptr %16, align 8
  store ptr %0, ptr %8, align 8
  store ptr %1, ptr %9, align 8
  store ptr %4, ptr %10, align 8
  store i32 %5, ptr %11, align 4
  store i32 1, ptr %14, align 4
  %17 = load i32, ptr @byte_swap, align 4
  %18 = icmp ne i32 %17, 0
  br i1 %18, label %19, label %22

19:                                               ; preds = %6
  %20 = load i32, ptr %14, align 4
  %21 = or i32 %20, 2
  store i32 %21, ptr %14, align 4
  br label %22

22:                                               ; preds = %19, %6
  %23 = load ptr, ptr %8, align 8
  %24 = load i32, ptr %14, align 4
  %25 = getelementptr inbounds { i64, i64 }, ptr %7, i32 0, i32 0
  %26 = load i64, ptr %25, align 8
  %27 = getelementptr inbounds { i64, i64 }, ptr %7, i32 0, i32 1
  %28 = load i64, ptr %27, align 8
  %29 = call ptr @JS_WriteObject(ptr noundef %23, ptr noundef %13, i64 %26, i64 %28, i32 noundef %24)
  store ptr %29, ptr %12, align 8
  %30 = load ptr, ptr %12, align 8
  %31 = icmp ne ptr %30, null
  br i1 %31, label %34, label %32

32:                                               ; preds = %22
  %33 = load ptr, ptr %8, align 8
  call void @js_std_dump_error(ptr noundef %33)
  call void @exit(i32 noundef 1) #11
  unreachable

34:                                               ; preds = %22
  %35 = load ptr, ptr %10, align 8
  %36 = load i32, ptr %11, align 4
  call void @namelist_add(ptr noundef @cname_list, ptr noundef %35, ptr noundef null, i32 noundef %36)
  %37 = load ptr, ptr %9, align 8
  %38 = load ptr, ptr %10, align 8
  %39 = load i64, ptr %13, align 8
  %40 = trunc i64 %39 to i32
  %41 = call i32 (ptr, ptr, ...) @fprintf(ptr noundef %37, ptr noundef @.str.31, ptr noundef %38, i32 noundef %40) #9
  %42 = load ptr, ptr %9, align 8
  %43 = load ptr, ptr %10, align 8
  %44 = load i64, ptr %13, align 8
  %45 = trunc i64 %44 to i32
  %46 = call i32 (ptr, ptr, ...) @fprintf(ptr noundef %42, ptr noundef @.str.32, ptr noundef %43, i32 noundef %45) #9
  %47 = load ptr, ptr %9, align 8
  %48 = load ptr, ptr %12, align 8
  %49 = load i64, ptr %13, align 8
  call void @dump_hex(ptr noundef %47, ptr noundef %48, i64 noundef %49)
  %50 = load ptr, ptr %9, align 8
  %51 = call i32 (ptr, ptr, ...) @fprintf(ptr noundef %50, ptr noundef @.str.33) #9
  %52 = load ptr, ptr %8, align 8
  %53 = load ptr, ptr %12, align 8
  call void @js_free(ptr noundef %52, ptr noundef %53)
  ret void
}