; Function Attrs: nounwind uwtable
define internal fastcc void @output_object_code(ptr noundef %0, ptr nocapture noundef %1, i64 %2, i64 %3, ptr noundef %4, i32 noundef %5) unnamed_addr #3 {
  %7 = alloca i64, align 8
  %.b = load i1, ptr @byte_swap, align 4
  %spec.select = select i1 %.b, i32 3, i32 1
  %8 = call ptr @JS_WriteObject(ptr noundef %0, ptr noundef nonnull %7, i64 %2, i64 %3, i32 noundef %spec.select) #16
  %.not = icmp eq ptr %8, null
  br i1 %.not, label %9, label %10

9:                                                ; preds = %6
  call void @js_std_dump_error(ptr noundef %0) #16
  call void @exit(i32 noundef 1) #19
  unreachable

10:                                               ; preds = %6
  %11 = load i32, ptr @cname_list.1, align 8
  %12 = load i32, ptr @cname_list.2, align 8
  %13 = icmp eq i32 %11, %12
  %.pre.i = load ptr, ptr @cname_list.0, align 8
  br i1 %13, label %14, label %namelist_add.exit

14:                                               ; preds = %10
  %15 = ashr i32 %11, 1
  %16 = add i32 %11, 4
  %17 = add i32 %16, %15
  %18 = sext i32 %17 to i64
  %19 = mul nsw i64 %18, 24
  %20 = call ptr @realloc(ptr noundef %.pre.i, i64 noundef %19) #15
  store ptr %20, ptr @cname_list.0, align 8
  store i32 %17, ptr @cname_list.2, align 8
  %.pre20.i = load i32, ptr @cname_list.1, align 8
  br label %namelist_add.exit

namelist_add.exit:                                ; preds = %10, %14
  %21 = phi i32 [ %.pre20.i, %14 ], [ %11, %10 ]
  %22 = phi ptr [ %20, %14 ], [ %.pre.i, %10 ]
  %23 = add i32 %21, 1
  store i32 %23, ptr @cname_list.1, align 8
  %24 = sext i32 %21 to i64
  %25 = getelementptr %struct.namelist_entry_t, ptr %22, i64 %24
  %26 = call noalias ptr @strdup(ptr noundef %4) #16
  store ptr %26, ptr %25, align 8
  %27 = getelementptr inbounds i8, ptr %25, i64 8
  store ptr null, ptr %27, align 8
  %28 = getelementptr inbounds i8, ptr %25, i64 16
  store i32 %5, ptr %28, align 8
  %29 = load i64, ptr %7, align 8
  %30 = trunc i64 %29 to i32
  %31 = call i32 (ptr, ptr, ...) @fprintf(ptr noundef %1, ptr noundef nonnull @.str.31, ptr noundef %4, i32 noundef %30) #16
  %32 = load i64, ptr %7, align 8
  %33 = trunc i64 %32 to i32
  %34 = call i32 (ptr, ptr, ...) @fprintf(ptr noundef %1, ptr noundef nonnull @.str.32, ptr noundef %4, i32 noundef %33) #16
  %35 = load i64, ptr %7, align 8
  %.not14.i = icmp eq i64 %35, 0
  br i1 %.not14.i, label %dump_hex.exit, label %.lr.ph.i

.lr.ph.i:                                         ; preds = %namelist_add.exit, %.lr.ph.i.backedge
  %.013.i = phi i64 [ %.013.i.be, %.lr.ph.i.backedge ], [ 0, %namelist_add.exit ]
  %.0912.i = phi i64 [ %.0912.i.be, %.lr.ph.i.backedge ], [ 0, %namelist_add.exit ]
  %36 = getelementptr i8, ptr %8, i64 %.0912.i
  %37 = load i8, ptr %36, align 1
  %38 = zext i8 %37 to i32
  %39 = call i32 (ptr, ptr, ...) @fprintf(ptr noundef %1, ptr noundef nonnull @.str.34, i32 noundef %38) #16
  %40 = add i64 %.013.i, 1
  %41 = icmp eq i64 %40, 8
  br i1 %41, label %.thread.i, label %42

42:                                               ; preds = %.lr.ph.i
  %43 = add nuw i64 %.0912.i, 1
  %exitcond.not.i = icmp eq i64 %43, %35
  br i1 %exitcond.not.i, label %._crit_edge.i, label %.lr.ph.i.backedge

.thread.i:                                        ; preds = %.lr.ph.i
  %fputc11.i = call i32 @fputc(i32 10, ptr %1)
  %44 = add nuw i64 %.0912.i, 1
  %exitcond.not17.i = icmp eq i64 %44, %35
  br i1 %exitcond.not17.i, label %dump_hex.exit, label %.lr.ph.i.backedge

.lr.ph.i.backedge:                                ; preds = %.thread.i, %42
  %.013.i.be = phi i64 [ %40, %42 ], [ 0, %.thread.i ]
  %.0912.i.be = phi i64 [ %43, %42 ], [ %44, %.thread.i ]
  br label %.lr.ph.i, !llvm.loop !11

._crit_edge.i:                                    ; preds = %42
  %45 = icmp eq i64 %40, 0
  br i1 %45, label %dump_hex.exit, label %46

46:                                               ; preds = %._crit_edge.i
  %fputc.i = call i32 @fputc(i32 10, ptr %1)
  br label %dump_hex.exit

dump_hex.exit:                                    ; preds = %.thread.i, %namelist_add.exit, %._crit_edge.i, %46
  %47 = call i64 @fwrite(ptr nonnull @.str.33, i64 4, i64 1, ptr %1)
  call void @js_free(ptr noundef %0, ptr noundef nonnull %8) #16
  ret void
}